target datalayout = "e-m:e-p270:32:32-p271:32:32-p272:64:64-i64:64-i128:128-f80:128-n8:16:32:64-S128"
target triple = "x86_64-pc-linux-gnu"

%struct.pmix_output_desc_t = type { i8, i8, i32, i8, i32, ptr, ptr, i32, ptr, i32, i8, i8, i8, i8, ptr, i32, i32 }

@pmix_output_info = global [64 x %struct.pmix_output_desc_t] zeroinitializer, align 16

; Function Attrs: nounwind uwtable
define internal void @free_descriptor(i32 noundef %0) #0 {
  %2 = alloca i32, align 4
  %3 = alloca ptr, align 8
  store i32 %0, ptr %2, align 4, !tbaa !33
  call void @llvm.lifetime.start.p0(i64 8, ptr %3) #12
  %4 = load i32, ptr %2, align 4, !tbaa !33
  %5 = icmp sge i32 %4, 0
  br i1 %5, label %6, label %83

6:                                                ; preds = %1
  %7 = load i32, ptr %2, align 4, !tbaa !33
  %8 = icmp slt i32 %7, 64
  br i1 %8, label %9, label %83

9:                                                ; preds = %6
  %10 = load i32, ptr %2, align 4, !tbaa !33
  %11 = sext i32 %10 to i64
  %12 = getelementptr inbounds [64 x %struct.pmix_output_desc_t], ptr @pmix_output_info, i64 0, i64 %11
  %13 = getelementptr inbounds nuw %struct.pmix_output_desc_t, ptr %12, i32 0, i32 0
  %14 = load i8, ptr %13, align 8, !tbaa !40, !range !30, !noundef !31
  %15 = trunc i8 %14 to i1
  br i1 %15, label %16, label %83

16:                                               ; preds = %9
  %17 = load i32, ptr %2, align 4, !tbaa !33
  %18 = sext i32 %17 to i64
  %19 = getelementptr inbounds [64 x %struct.pmix_output_desc_t], ptr @pmix_output_info, i64 0, i64 %18
  %20 = getelementptr inbounds nuw %struct.pmix_output_desc_t, ptr %19, i32 0, i32 1
  %21 = load i8, ptr %20, align 1, !tbaa !42, !range !30, !noundef !31
  %22 = trunc i8 %21 to i1
  br i1 %22, label %23, label %83

23:                                               ; preds = %16
  %24 = load i32, ptr %2, align 4, !tbaa !33
  %25 = sext i32 %24 to i64
  %26 = getelementptr inbounds [64 x %struct.pmix_output_desc_t], ptr @pmix_output_info, i64 0, i64 %25
  store ptr %26, ptr %3, align 8, !tbaa !62
  %27 = load ptr, ptr %3, align 8, !tbaa !62
  %28 = getelementptr inbounds nuw %struct.pmix_output_desc_t, ptr %27, i32 0, i32 15
  %29 = load i32, ptr %28, align 8, !tbaa !47
  %30 = icmp ne i32 -1, %29
  br i1 %30, label %31, label %36

31:                                               ; preds = %23
  %32 = load ptr, ptr %3, align 8, !tbaa !62
  %33 = getelementptr inbounds nuw %struct.pmix_output_desc_t, ptr %32, i32 0, i32 15
  %34 = load i32, ptr %33, align 8, !tbaa !47
  %35 = call i32 @close(i32 noundef %34)
  br label %36

36:                                               ; preds = %31, %23
  %37 = load ptr, ptr %3, align 8, !tbaa !62
  %38 = getelementptr inbounds nuw %struct.pmix_output_desc_t, ptr %37, i32 0, i32 0
  store i8 0, ptr %38, align 8, !tbaa !40
  %39 = load ptr, ptr %3, align 8, !tbaa !62
  %40 = getelementptr inbounds nuw %struct.pmix_output_desc_t, ptr %39, i32 0, i32 6
  %41 = load ptr, ptr %40, align 8, !tbaa !67
  %42 = icmp ne ptr null, %41
  br i1 %42, label %43, label %47

43:                                               ; preds = %36
  %44 = load ptr, ptr %3, align 8, !tbaa !62
  %45 = getelementptr inbounds nuw %struct.pmix_output_desc_t, ptr %44, i32 0, i32 6
  %46 = load ptr, ptr %45, align 8, !tbaa !67
  call void @free(ptr noundef %46) #12
  br label %47

47:                                               ; preds = %43, %36
  %48 = load ptr, ptr %3, align 8, !tbaa !62
  %49 = getelementptr inbounds nuw %struct.pmix_output_desc_t, ptr %48, i32 0, i32 6
  store ptr null, ptr %49, align 8, !tbaa !67
  %50 = load ptr, ptr %3, align 8, !tbaa !62
  %51 = getelementptr inbounds nuw %struct.pmix_output_desc_t, ptr %50, i32 0, i32 8
  %52 = load ptr, ptr %51, align 8, !tbaa !69
  %53 = icmp ne ptr null, %52
  br i1 %53, label %54, label %58

54:                                               ; preds = %47
  %55 = load ptr, ptr %3, align 8, !tbaa !62
  %56 = getelementptr inbounds nuw %struct.pmix_output_desc_t, ptr %55, i32 0, i32 8
  %57 = load ptr, ptr %56, align 8, !tbaa !69
  call void @free(ptr noundef %57) #12
  br label %58

58:                                               ; preds = %54, %47
  %59 = load ptr, ptr %3, align 8, !tbaa !62
  %60 = getelementptr inbounds nuw %struct.pmix_output_desc_t, ptr %59, i32 0, i32 8
  store ptr null, ptr %60, align 8, !tbaa !69
  %61 = load ptr, ptr %3, align 8, !tbaa !62
  %62 = getelementptr inbounds nuw %struct.pmix_output_desc_t, ptr %61, i32 0, i32 14
  %63 = load ptr, ptr %62, align 8, !tbaa !45
  %64 = icmp ne ptr null, %63
  br i1 %64, label %65, label %69

65:                                               ; preds = %58
  %66 = load ptr, ptr %3, align 8, !tbaa !62
  %67 = getelementptr inbounds nuw %struct.pmix_output_desc_t, ptr %66, i32 0, i32 14
  %68 = load ptr, ptr %67, align 8, !tbaa !45
  call void @free(ptr noundef %68) #12
  br label %69

69:                                               ; preds = %65, %58
  %70 = load ptr, ptr %3, align 8, !tbaa !62
  %71 = getelementptr inbounds nuw %struct.pmix_output_desc_t, ptr %70, i32 0, i32 14
  store ptr null, ptr %71, align 8, !tbaa !45
  %72 = load ptr, ptr %3, align 8, !tbaa !62
  %73 = getelementptr inbounds nuw %struct.pmix_output_desc_t, ptr %72, i32 0, i32 5
  %74 = load ptr, ptr %73, align 8, !tbaa !74
  %75 = icmp ne ptr null, %74
  br i1 %75, label %76, label %80

76:                                               ; preds = %69
  %77 = load ptr, ptr %3, align 8, !tbaa !62
  %78 = getelementptr inbounds nuw %struct.pmix_output_desc_t, ptr %77, i32 0, i32 5
  %79 = load ptr, ptr %78, align 8, !tbaa !74
  call void @free(ptr noundef %79) #12
  br label %80

80:                                               ; preds = %76, %69
  %81 = load ptr, ptr %3, align 8, !tbaa !62
  %82 = getelementptr inbounds nuw %struct.pmix_output_desc_t, ptr %81, i32 0, i32 5
  store ptr null, ptr %82, align 8, !tbaa !74
  br label %83

83:                                               ; preds = %80, %16, %9, %6, %1
  call void @llvm.lifetime.end.p0(i64 8, ptr %3) #12
  ret void
}