; Function Attrs: nounwind uwtable
define internal fastcc void @free_descriptor(i32 noundef range(i32 0, -1) %0) unnamed_addr #2 {
  %or.cond = icmp ult i32 %0, 64
  br i1 %or.cond, label %2, label %33

2:                                                ; preds = %1
  %3 = zext nneg i32 %0 to i64
  %4 = getelementptr inbounds nuw [64 x %struct.pmix_output_desc_t], ptr @pmix_output_info, i64 0, i64 %3
  %5 = load i8, ptr %4, align 8, !tbaa !34, !range !26, !noundef !27
  %6 = trunc nuw i8 %5 to i1
  br i1 %6, label %7, label %33

7:                                                ; preds = %2
  %8 = getelementptr inbounds nuw i8, ptr %4, i64 1
  %9 = load i8, ptr %8, align 1, !tbaa !36, !range !26, !noundef !27
  %10 = trunc nuw i8 %9 to i1
  br i1 %10, label %11, label %33

11:                                               ; preds = %7
  %12 = getelementptr inbounds nuw i8, ptr %4, i64 64
  %13 = load i32, ptr %12, align 8, !tbaa !41
  %.not = icmp eq i32 %13, -1
  br i1 %.not, label %16, label %14

14:                                               ; preds = %11
  %15 = tail call i32 @close(i32 noundef %13) #22
  br label %16

16:                                               ; preds = %14, %11
  store i8 0, ptr %4, align 8, !tbaa !34
  %17 = getelementptr inbounds nuw i8, ptr %4, i64 24
  %18 = load ptr, ptr %17, align 8, !tbaa !49
  %.not25 = icmp eq ptr %18, null
  br i1 %.not25, label %20, label %19

19:                                               ; preds = %16
  tail call void @free(ptr noundef nonnull %18) #22
  br label %20

20:                                               ; preds = %19, %16
  store ptr null, ptr %17, align 8, !tbaa !49
  %21 = getelementptr inbounds nuw i8, ptr %4, i64 40
  %22 = load ptr, ptr %21, align 8, !tbaa !52
  %.not26 = icmp eq ptr %22, null
  br i1 %.not26, label %24, label %23

23:                                               ; preds = %20
  tail call void @free(ptr noundef nonnull %22) #22
  br label %24

24:                                               ; preds = %23, %20
  store ptr null, ptr %21, align 8, !tbaa !52
  %25 = getelementptr inbounds nuw i8, ptr %4, i64 56
  %26 = load ptr, ptr %25, align 8, !tbaa !39
  %.not27 = icmp eq ptr %26, null
  br i1 %.not27, label %28, label %27

27:                                               ; preds = %24
  tail call void @free(ptr noundef nonnull %26) #22
  br label %28

28:                                               ; preds = %27, %24
  store ptr null, ptr %25, align 8, !tbaa !39
  %29 = getelementptr inbounds nuw i8, ptr %4, i64 16
  %30 = load ptr, ptr %29, align 8, !tbaa !58
  %.not28 = icmp eq ptr %30, null
  br i1 %.not28, label %32, label %31

31:                                               ; preds = %28
  tail call void @free(ptr noundef nonnull %30) #22
  br label %32

32:                                               ; preds = %31, %28
  store ptr null, ptr %29, align 8, !tbaa !58
  br label %33

33:                                               ; preds = %32, %7, %2, %1
  ret void
}